target datalayout = "e-m:e-p270:32:32-p271:32:32-p272:64:64-i64:64-i128:128-f80:128-n8:16:32:64-S128"
target triple = "x86_64-pc-linux-gnu"

%"struct.Luau::NotNull" = type { ptr }
%"class.Luau::AstStat.base" = type { %"class.Luau::AstNode.base", i8 }
%"class.Luau::AstNode.base" = type <{ ptr, i32, %"struct.Luau::Location" }>
%"struct.Luau::Location" = type { %"struct.Luau::Position", %"struct.Luau::Position" }
%"struct.Luau::Position" = type { i32, i32 }
%"class.Luau::AstNode" = type <{ ptr, i32, %"struct.Luau::Location", [4 x i8] }>
%"struct.Luau::DataFlowResult" = type { %"struct.Luau::NotNull", ptr }
%"class.Luau::AstStatExpr" = type { %"class.Luau::AstStat.base", ptr }

@_ZN4Luau7AstRttiINS_11AstExprCallEE5valueE = linkonce_odr dso_local global i32 0, comdat, align 4

; Function Attrs: mustprogress nounwind uwtable
define linkonce_odr dso_local noundef i32 @_ZN4Luau11AstExprCall10ClassIndexEv() #4 comdat align 2 {
  %1 = load i32, ptr @_ZN4Luau7AstRttiINS_11AstExprCallEE5valueE, align 4, !tbaa !4
  ret i32 %1
}

; Function Attrs: mustprogress uwtable
define linkonce_odr dso_local noundef ptr @_ZN4Luau7AstNode2asINS_11AstExprCallEEEPT_v(ptr noundef nonnull align 8 dereferenceable(28) %0) #2 comdat align 2 {
  %2 = alloca ptr, align 8
  store ptr %0, ptr %2, align 8, !tbaa !324
  %3 = load ptr, ptr %2, align 8
  %4 = getelementptr inbounds nuw %"class.Luau::AstNode", ptr %3, i32 0, i32 1
  %5 = load i32, ptr %4, align 8, !tbaa !326
  %6 = call noundef i32 @_ZN4Luau11AstExprCall10ClassIndexEv()
  %7 = icmp eq i32 %5, %6
  br i1 %7, label %8, label %9

8:                                                ; preds = %1
  br label %10

9:                                                ; preds = %1
  br label %10

10:                                               ; preds = %9, %8
  %11 = phi ptr [ %3, %8 ], [ null, %9 ]
  ret ptr %11
}

; Function Attrs: mustprogress uwtable
define dso_local noundef i32 @_ZN4Luau20DataFlowGraphBuilder5visitEPNS_11AstStatExprE(ptr noundef nonnull align 8 dereferenceable(336) %0, ptr noundef %1) #2 align 2 {
  %3 = alloca i32, align 4
  %4 = alloca ptr, align 8
  %5 = alloca ptr, align 8
  %6 = alloca %"struct.Luau::DataFlowResult", align 8
  %7 = alloca ptr, align 8
  %8 = alloca i32, align 4
  store ptr %0, ptr %4, align 8, !tbaa !154
  store ptr %1, ptr %5, align 8, !tbaa !300
  %9 = load ptr, ptr %4, align 8
  %10 = load ptr, ptr %5, align 8, !tbaa !300
  %11 = getelementptr inbounds nuw %"class.Luau::AstStatExpr", ptr %10, i32 0, i32 1
  %12 = load ptr, ptr %11, align 8, !tbaa !347
  %13 = call { ptr, ptr } @_ZN4Luau20DataFlowGraphBuilder9visitExprEPNS_7AstExprE(ptr noundef nonnull align 8 dereferenceable(336) %9, ptr noundef %12)
  %14 = getelementptr inbounds nuw { ptr, ptr }, ptr %6, i32 0, i32 0
  %15 = extractvalue { ptr, ptr } %13, 0
  store ptr %15, ptr %14, align 8
  %16 = getelementptr inbounds nuw { ptr, ptr }, ptr %6, i32 0, i32 1
  %17 = extractvalue { ptr, ptr } %13, 1
  store ptr %17, ptr %16, align 8
  call void @llvm.lifetime.start.p0(i64 8, ptr %7) #17
  %18 = load ptr, ptr %5, align 8, !tbaa !300
  %19 = getelementptr inbounds nuw %"class.Luau::AstStatExpr", ptr %18, i32 0, i32 1
  %20 = load ptr, ptr %19, align 8, !tbaa !347
  %21 = call noundef ptr @_ZN4Luau7AstNode2asINS_11AstExprCallEEEPT_v(ptr noundef nonnull align 8 dereferenceable(28) %20)
  store ptr %21, ptr %7, align 8, !tbaa !349
  %22 = load ptr, ptr %7, align 8, !tbaa !349
  %23 = icmp ne ptr %22, null
  br i1 %23, label %24, label %28

24:                                               ; preds = %2
  %25 = load ptr, ptr %7, align 8, !tbaa !349
  %26 = call noundef zeroext i1 @_ZN4Luau13doesCallErrorEPKNS_11AstExprCallE(ptr noundef %25)
  br i1 %26, label %27, label %28

27:                                               ; preds = %24
  store i32 4, ptr %3, align 4
  store i32 1, ptr %8, align 4
  br label %29

28:                                               ; preds = %24, %2
  store i32 1, ptr %3, align 4
  store i32 1, ptr %8, align 4
  br label %29

29:                                               ; preds = %28, %27
  call void @llvm.lifetime.end.p0(i64 8, ptr %7) #17
  %30 = load i32, ptr %3, align 4
  ret i32 %30
}