; Function Attrs: mustprogress uwtable
define dso_local noundef range(i32 1, 5) i32 @_ZN4Luau20DataFlowGraphBuilder5visitEPNS_11AstStatExprE(ptr noundef nonnull align 8 dereferenceable(336) %0, ptr noundef readonly captures(none) %1) local_unnamed_addr #2 align 2 {
  %3 = getelementptr inbounds nuw i8, ptr %1, i64 32
  %4 = load ptr, ptr %3, align 8, !tbaa !270
  %5 = tail call { ptr, ptr } @_ZN4Luau20DataFlowGraphBuilder9visitExprEPNS_7AstExprE(ptr noundef nonnull align 8 dereferenceable(336) %0, ptr noundef %4)
  %6 = load ptr, ptr %3, align 8, !tbaa !270
  %7 = getelementptr inbounds nuw i8, ptr %6, i64 8
  %8 = load i32, ptr %7, align 8, !tbaa !246
  %9 = load i32, ptr @_ZN4Luau7AstRttiINS_11AstExprCallEE5valueE, align 4, !tbaa !4
  %10 = icmp ne i32 %8, %9
  %.not6 = icmp eq ptr %6, null
  %.not = or i1 %.not6, %10
  br i1 %.not, label %13, label %11

11:                                               ; preds = %2
  %12 = tail call noundef zeroext i1 @_ZN4Luau13doesCallErrorEPKNS_11AstExprCallE(ptr noundef nonnull %6)
  br i1 %12, label %14, label %13

13:                                               ; preds = %11, %2
  br label %14

14:                                               ; preds = %11, %13
  %.0 = phi i32 [ 1, %13 ], [ 4, %11 ]
  ret i32 %.0
}